target datalayout = "e-m:e-p270:32:32-p271:32:32-p272:64:64-i64:64-i128:128-f80:128-n8:16:32:64-S128"
target triple = "x86_64-pc-linux-gnu"

%struct.AVFormatContext = type { ptr, ptr, ptr, ptr, ptr, i32, i32, ptr, i32, ptr, i32, ptr, ptr, i64, i64, i64, i32, i32, i32, i64, i64, ptr, i32, i32, ptr, i32, i32, i32, i32, ptr, i64, i32, i32, %struct.AVIOInterruptCB, i32, i32, i32, i32, i64, i32, i32, i32, i32, i32, i32, i32, i32, i32, i32, i32, i32, i64, i32, i32, i32, i32, i32, ptr, ptr, ptr, ptr, i32, ptr, ptr, ptr, ptr, i32, ptr, ptr, i64, ptr, ptr, ptr, i64 }
%struct.AVIOInterruptCB = type { ptr, ptr }
%struct.AVStream = type { ptr, i32, i32, ptr, ptr, %struct.AVRational, i64, i64, i64, i32, i32, %struct.AVRational, ptr, %struct.AVRational, %struct.AVPacket, i32, %struct.AVRational, i32 }
%struct.AVPacket = type { ptr, i64, i64, ptr, i32, i32, i32, ptr, i32, i64, i64, ptr, ptr, %struct.AVRational }
%struct.AVRational = type { i32, i32 }
%struct.AVCodecParameters = type { i32, i32, i32, ptr, i32, ptr, i32, i32, i64, i32, i32, i32, i32, i32, i32, %struct.AVRational, %struct.AVRational, i32, i32, i32, i32, i32, i32, i32, %struct.AVChannelLayout, i32, i32, i32, i32, i32, i32 }
%struct.AVChannelLayout = type { i32, i32, %union.anon, ptr }
%union.anon = type { i64 }

; Function Attrs: alwaysinline nounwind uwtable
define internal i64 @avio_tell(ptr noundef %0) #5 {
  %2 = alloca ptr, align 8
  store ptr %0, ptr %2, align 8, !tbaa !31
  %3 = load ptr, ptr %2, align 8, !tbaa !31
  %4 = call i64 @avio_seek(ptr noundef %3, i64 noundef 0, i32 noundef 1)
  ret i64 %4
}

; Function Attrs: nounwind uwtable
define internal i32 @rsd_read_packet(ptr noundef %0, ptr noundef %1) #0 {
  %3 = alloca i32, align 4
  %4 = alloca ptr, align 8
  %5 = alloca ptr, align 8
  %6 = alloca ptr, align 8
  %7 = alloca i32, align 4
  %8 = alloca i32, align 4
  %9 = alloca i64, align 8
  %10 = alloca i32, align 4
  %11 = alloca i32, align 4
  %12 = alloca i32, align 4
  store ptr %0, ptr %4, align 8, !tbaa !14
  store ptr %1, ptr %5, align 8, !tbaa !61
  call void @llvm.lifetime.start.p0(i64 8, ptr %6) #7
  %13 = load ptr, ptr %4, align 8, !tbaa !14
  %14 = getelementptr inbounds nuw %struct.AVFormatContext, ptr %13, i32 0, i32 7
  %15 = load ptr, ptr %14, align 8, !tbaa !63
  %16 = getelementptr inbounds ptr, ptr %15, i64 0
  %17 = load ptr, ptr %16, align 8, !tbaa !33
  %18 = getelementptr inbounds nuw %struct.AVStream, ptr %17, i32 0, i32 3
  %19 = load ptr, ptr %18, align 8, !tbaa !35
  store ptr %19, ptr %6, align 8, !tbaa !42
  call void @llvm.lifetime.start.p0(i64 4, ptr %7) #7
  call void @llvm.lifetime.start.p0(i64 4, ptr %8) #7
  store i32 1024, ptr %8, align 4, !tbaa !32
  call void @llvm.lifetime.start.p0(i64 8, ptr %9) #7
  %20 = load ptr, ptr %4, align 8, !tbaa !14
  %21 = getelementptr inbounds nuw %struct.AVFormatContext, ptr %20, i32 0, i32 4
  %22 = load ptr, ptr %21, align 8, !tbaa !16
  %23 = call i32 @avio_feof(ptr noundef %22)
  %24 = icmp ne i32 %23, 0
  br i1 %24, label %25, label %26

25:                                               ; preds = %2
  store i32 -541478725, ptr %3, align 4
  store i32 1, ptr %10, align 4
  br label %173

26:                                               ; preds = %2
  %27 = load ptr, ptr %4, align 8, !tbaa !14
  %28 = getelementptr inbounds nuw %struct.AVFormatContext, ptr %27, i32 0, i32 4
  %29 = load ptr, ptr %28, align 8, !tbaa !16
  %30 = call i64 @avio_tell(ptr noundef %29)
  store i64 %30, ptr %9, align 8, !tbaa !59
  %31 = load ptr, ptr %6, align 8, !tbaa !42
  %32 = getelementptr inbounds nuw %struct.AVCodecParameters, ptr %31, i32 0, i32 1
  %33 = load i32, ptr %32, align 4, !tbaa !47
  %34 = icmp eq i32 %33, 69666
  br i1 %34, label %50, label %35

35:                                               ; preds = %26
  %36 = load ptr, ptr %6, align 8, !tbaa !42
  %37 = getelementptr inbounds nuw %struct.AVCodecParameters, ptr %36, i32 0, i32 1
  %38 = load i32, ptr %37, align 4, !tbaa !47
  %39 = icmp eq i32 %38, 69669
  br i1 %39, label %50, label %40

40:                                               ; preds = %35
  %41 = load ptr, ptr %6, align 8, !tbaa !42
  %42 = getelementptr inbounds nuw %struct.AVCodecParameters, ptr %41, i32 0, i32 1
  %43 = load i32, ptr %42, align 4, !tbaa !47
  %44 = icmp eq i32 %43, 69633
  br i1 %44, label %50, label %45

45:                                               ; preds = %40
  %46 = load ptr, ptr %6, align 8, !tbaa !42
  %47 = getelementptr inbounds nuw %struct.AVCodecParameters, ptr %46, i32 0, i32 1
  %48 = load i32, ptr %47, align 4, !tbaa !47
  %49 = icmp eq i32 %48, 86096
  br i1 %49, label %50, label %59

50:                                               ; preds = %45, %40, %35, %26
  %51 = load ptr, ptr %4, align 8, !tbaa !14
  %52 = getelementptr inbounds nuw %struct.AVFormatContext, ptr %51, i32 0, i32 4
  %53 = load ptr, ptr %52, align 8, !tbaa !16
  %54 = load ptr, ptr %5, align 8, !tbaa !61
  %55 = load ptr, ptr %6, align 8, !tbaa !42
  %56 = getelementptr inbounds nuw %struct.AVCodecParameters, ptr %55, i32 0, i32 26
  %57 = load i32, ptr %56, align 4, !tbaa !53
  %58 = call i32 @av_get_packet(ptr noundef %53, ptr noundef %54, i32 noundef %57)
  store i32 %58, ptr %7, align 4, !tbaa !32
  br label %144

59:                                               ; preds = %45
  %60 = load ptr, ptr %6, align 8, !tbaa !42
  %61 = getelementptr inbounds nuw %struct.AVCodecParameters, ptr %60, i32 0, i32 2
  %62 = load i32, ptr %61, align 8, !tbaa !46
  %63 = icmp eq i32 %62, 1346650455
  br i1 %63, label %64, label %136

64:                                               ; preds = %59
  %65 = load ptr, ptr %6, align 8, !tbaa !42
  %66 = getelementptr inbounds nuw %struct.AVCodecParameters, ptr %65, i32 0, i32 24
  %67 = getelementptr inbounds nuw %struct.AVChannelLayout, ptr %66, i32 0, i32 1
  %68 = load i32, ptr %67, align 4, !tbaa !51
  %69 = icmp sgt i32 %68, 1
  br i1 %69, label %70, label %136

70:                                               ; preds = %64
  call void @llvm.lifetime.start.p0(i64 4, ptr %11) #7
  call void @llvm.lifetime.start.p0(i64 4, ptr %12) #7
  %71 = load ptr, ptr %5, align 8, !tbaa !61
  %72 = load ptr, ptr %6, align 8, !tbaa !42
  %73 = getelementptr inbounds nuw %struct.AVCodecParameters, ptr %72, i32 0, i32 26
  %74 = load i32, ptr %73, align 4, !tbaa !53
  %75 = call i32 @av_new_packet(ptr noundef %71, i32 noundef %74)
  store i32 %75, ptr %7, align 4, !tbaa !32
  %76 = load i32, ptr %7, align 4, !tbaa !32
  %77 = icmp slt i32 %76, 0
  br i1 %77, label %78, label %80

78:                                               ; preds = %70
  %79 = load i32, ptr %7, align 4, !tbaa !32
  store i32 %79, ptr %3, align 4
  store i32 1, ptr %10, align 4
  br label %133

80:                                               ; preds = %70
  store i32 0, ptr %11, align 4, !tbaa !32
  br label %81

81:                                               ; preds = %129, %80
  %82 = load i32, ptr %11, align 4, !tbaa !32
  %83 = icmp slt i32 %82, 4
  br i1 %83, label %84, label %132

84:                                               ; preds = %81
  store i32 0, ptr %12, align 4, !tbaa !32
  br label %85

85:                                               ; preds = %125, %84
  %86 = load i32, ptr %12, align 4, !tbaa !32
  %87 = load ptr, ptr %6, align 8, !tbaa !42
  %88 = getelementptr inbounds nuw %struct.AVCodecParameters, ptr %87, i32 0, i32 24
  %89 = getelementptr inbounds nuw %struct.AVChannelLayout, ptr %88, i32 0, i32 1
  %90 = load i32, ptr %89, align 4, !tbaa !51
  %91 = icmp slt i32 %86, %90
  br i1 %91, label %92, label %128

92:                                               ; preds = %85
  %93 = load ptr, ptr %4, align 8, !tbaa !14
  %94 = getelementptr inbounds nuw %struct.AVFormatContext, ptr %93, i32 0, i32 4
  %95 = load ptr, ptr %94, align 8, !tbaa !16
  %96 = call i32 @avio_r8(ptr noundef %95)
  %97 = trunc i32 %96 to i8
  %98 = load ptr, ptr %5, align 8, !tbaa !61
  %99 = getelementptr inbounds nuw %struct.AVPacket, ptr %98, i32 0, i32 3
  %100 = load ptr, ptr %99, align 8, !tbaa !64
  %101 = load i32, ptr %12, align 4, !tbaa !32
  %102 = mul nsw i32 %101, 8
  %103 = load i32, ptr %11, align 4, !tbaa !32
  %104 = mul nsw i32 %103, 2
  %105 = add nsw i32 %102, %104
  %106 = add nsw i32 %105, 0
  %107 = sext i32 %106 to i64
  %108 = getelementptr inbounds i8, ptr %100, i64 %107
  store i8 %97, ptr %108, align 1, !tbaa !13
  %109 = load ptr, ptr %4, align 8, !tbaa !14
  %110 = getelementptr inbounds nuw %struct.AVFormatContext, ptr %109, i32 0, i32 4
  %111 = load ptr, ptr %110, align 8, !tbaa !16
  %112 = call i32 @avio_r8(ptr noundef %111)
  %113 = trunc i32 %112 to i8
  %114 = load ptr, ptr %5, align 8, !tbaa !61
  %115 = getelementptr inbounds nuw %struct.AVPacket, ptr %114, i32 0, i32 3
  %116 = load ptr, ptr %115, align 8, !tbaa !64
  %117 = load i32, ptr %12, align 4, !tbaa !32
  %118 = mul nsw i32 %117, 8
  %119 = load i32, ptr %11, align 4, !tbaa !32
  %120 = mul nsw i32 %119, 2
  %121 = add nsw i32 %118, %120
  %122 = add nsw i32 %121, 1
  %123 = sext i32 %122 to i64
  %124 = getelementptr inbounds i8, ptr %116, i64 %123
  store i8 %113, ptr %124, align 1, !tbaa !13
  br label %125

125:                                              ; preds = %92
  %126 = load i32, ptr %12, align 4, !tbaa !32
  %127 = add nsw i32 %126, 1
  store i32 %127, ptr %12, align 4, !tbaa !32
  br label %85, !llvm.loop !65

128:                                              ; preds = %85
  br label %129

129:                                              ; preds = %128
  %130 = load i32, ptr %11, align 4, !tbaa !32
  %131 = add nsw i32 %130, 1
  store i32 %131, ptr %11, align 4, !tbaa !32
  br label %81, !llvm.loop !66

132:                                              ; preds = %81
  store i32 0, ptr %7, align 4, !tbaa !32
  store i32 0, ptr %10, align 4
  br label %133

133:                                              ; preds = %132, %78
  call void @llvm.lifetime.end.p0(i64 4, ptr %12) #7
  call void @llvm.lifetime.end.p0(i64 4, ptr %11) #7
  %134 = load i32, ptr %10, align 4
  switch i32 %134, label %173 [
    i32 0, label %135
  ]

135:                                              ; preds = %133
  br label %143

136:                                              ; preds = %64, %59
  %137 = load ptr, ptr %4, align 8, !tbaa !14
  %138 = getelementptr inbounds nuw %struct.AVFormatContext, ptr %137, i32 0, i32 4
  %139 = load ptr, ptr %138, align 8, !tbaa !16
  %140 = load ptr, ptr %5, align 8, !tbaa !61
  %141 = load i32, ptr %8, align 4, !tbaa !32
  %142 = call i32 @av_get_packet(ptr noundef %139, ptr noundef %140, i32 noundef %141)
  store i32 %142, ptr %7, align 4, !tbaa !32
  br label %143

143:                                              ; preds = %136, %135
  br label %144

144:                                              ; preds = %143, %50
  %145 = load ptr, ptr %6, align 8, !tbaa !42
  %146 = getelementptr inbounds nuw %struct.AVCodecParameters, ptr %145, i32 0, i32 1
  %147 = load i32, ptr %146, align 4, !tbaa !47
  %148 = icmp eq i32 %147, 86096
  br i1 %148, label %149, label %166

149:                                              ; preds = %144
  %150 = load ptr, ptr %5, align 8, !tbaa !61
  %151 = getelementptr inbounds nuw %struct.AVPacket, ptr %150, i32 0, i32 4
  %152 = load i32, ptr %151, align 8, !tbaa !67
  %153 = icmp sge i32 %152, 1
  br i1 %153, label %154, label %166

154:                                              ; preds = %149
  %155 = load ptr, ptr %5, align 8, !tbaa !61
  %156 = getelementptr inbounds nuw %struct.AVPacket, ptr %155, i32 0, i32 3
  %157 = load ptr, ptr %156, align 8, !tbaa !64
  %158 = getelementptr inbounds i8, ptr %157, i64 0
  %159 = load i8, ptr %158, align 1, !tbaa !13
  %160 = zext i8 %159 to i32
  %161 = ashr i32 %160, 2
  %162 = mul nsw i32 %161, 512
  %163 = sext i32 %162 to i64
  %164 = load ptr, ptr %5, align 8, !tbaa !61
  %165 = getelementptr inbounds nuw %struct.AVPacket, ptr %164, i32 0, i32 9
  store i64 %163, ptr %165, align 8, !tbaa !68
  br label %166

166:                                              ; preds = %154, %149, %144
  %167 = load i64, ptr %9, align 8, !tbaa !59
  %168 = load ptr, ptr %5, align 8, !tbaa !61
  %169 = getelementptr inbounds nuw %struct.AVPacket, ptr %168, i32 0, i32 10
  store i64 %167, ptr %169, align 8, !tbaa !69
  %170 = load ptr, ptr %5, align 8, !tbaa !61
  %171 = getelementptr inbounds nuw %struct.AVPacket, ptr %170, i32 0, i32 5
  store i32 0, ptr %171, align 4, !tbaa !70
  %172 = load i32, ptr %7, align 4, !tbaa !32
  store i32 %172, ptr %3, align 4
  store i32 1, ptr %10, align 4
  br label %173

173:                                              ; preds = %166, %133, %25
  call void @llvm.lifetime.end.p0(i64 8, ptr %9) #7
  call void @llvm.lifetime.end.p0(i64 4, ptr %8) #7
  call void @llvm.lifetime.end.p0(i64 4, ptr %7) #7
  call void @llvm.lifetime.end.p0(i64 8, ptr %6) #7
  %174 = load i32, ptr %3, align 4
  ret i32 %174
}