; Function Attrs: nounwind uwtable
define internal i32 @rsd_read_packet(ptr noundef readonly captures(none) %0, ptr noundef %1) #1 {
  %3 = getelementptr inbounds nuw i8, ptr %0, i64 48
  %4 = load ptr, ptr %3, align 8, !tbaa !49
  %5 = load ptr, ptr %4, align 8, !tbaa !50
  %6 = getelementptr inbounds nuw i8, ptr %5, i64 16
  %7 = load ptr, ptr %6, align 8, !tbaa !27
  %8 = getelementptr inbounds nuw i8, ptr %0, i64 32
  %9 = load ptr, ptr %8, align 8, !tbaa !12
  %10 = tail call i32 @avio_feof(ptr noundef %9) #5
  %.not = icmp eq i32 %10, 0
  br i1 %.not, label %11, label %.thread

11:                                               ; preds = %2
  %12 = load ptr, ptr %8, align 8, !tbaa !12
  %13 = tail call i64 @avio_seek(ptr noundef %12, i64 noundef 0, i32 noundef 1) #5
  %14 = getelementptr inbounds nuw i8, ptr %7, i64 4
  %15 = load i32, ptr %14, align 4, !tbaa !38
  switch i32 %15, label %21 [
    i32 69666, label %16
    i32 69669, label %16
    i32 69633, label %16
    i32 86096, label %16
  ]

16:                                               ; preds = %11, %11, %11, %11
  %17 = load ptr, ptr %8, align 8, !tbaa !12
  %18 = getelementptr inbounds nuw i8, ptr %7, i64 156
  %19 = load i32, ptr %18, align 4, !tbaa !41
  %20 = tail call i32 @av_get_packet(ptr noundef %17, ptr noundef %1, i32 noundef %19) #5
  br label %.loopexit

21:                                               ; preds = %11
  %22 = getelementptr inbounds nuw i8, ptr %7, i64 8
  %23 = load i32, ptr %22, align 8, !tbaa !37
  %24 = icmp eq i32 %23, 1346650455
  br i1 %24, label %25, label %58

25:                                               ; preds = %21
  %26 = getelementptr inbounds nuw i8, ptr %7, i64 132
  %27 = load i32, ptr %26, align 4, !tbaa !39
  %28 = icmp sgt i32 %27, 1
  br i1 %28, label %29, label %58

29:                                               ; preds = %25
  %30 = getelementptr inbounds nuw i8, ptr %7, i64 156
  %31 = load i32, ptr %30, align 4, !tbaa !41
  %32 = tail call i32 @av_new_packet(ptr noundef %1, i32 noundef %31) #5
  %33 = icmp sgt i32 %32, -1
  br i1 %33, label %.preheader49, label %.thread

.preheader49:                                     ; preds = %29
  %34 = getelementptr inbounds nuw i8, ptr %1, i64 24
  %35 = load i32, ptr %26, align 4, !tbaa !39
  %36 = icmp sgt i32 %35, 0
  br i1 %36, label %.preheader, label %.loopexit

.preheader:                                       ; preds = %.preheader49, %._crit_edge
  %37 = phi i32 [ %57, %._crit_edge ], [ %35, %.preheader49 ]
  %indvars.iv54 = phi i64 [ %indvars.iv.next55, %._crit_edge ], [ 0, %.preheader49 ]
  %38 = icmp sgt i32 %37, 0
  br i1 %38, label %.lr.ph, label %._crit_edge

.lr.ph:                                           ; preds = %.preheader
  %39 = shl nuw nsw i64 %indvars.iv54, 1
  br label %40

40:                                               ; preds = %.lr.ph, %40
  %indvars.iv = phi i64 [ 0, %.lr.ph ], [ %indvars.iv.next, %40 ]
  %41 = load ptr, ptr %8, align 8, !tbaa !12
  %42 = tail call i32 @avio_r8(ptr noundef %41) #5
  %43 = trunc i32 %42 to i8
  %44 = load ptr, ptr %34, align 8, !tbaa !52
  %45 = shl nsw i64 %indvars.iv, 3
  %46 = add nuw nsw i64 %45, %39
  %47 = getelementptr inbounds nuw i8, ptr %44, i64 %46
  store i8 %43, ptr %47, align 1, !tbaa !11
  %48 = load ptr, ptr %8, align 8, !tbaa !12
  %49 = tail call i32 @avio_r8(ptr noundef %48) #5
  %50 = trunc i32 %49 to i8
  %51 = load ptr, ptr %34, align 8, !tbaa !52
  %52 = getelementptr inbounds nuw i8, ptr %51, i64 %46
  %53 = getelementptr inbounds nuw i8, ptr %52, i64 1
  store i8 %50, ptr %53, align 1, !tbaa !11
  %indvars.iv.next = add nuw nsw i64 %indvars.iv, 1
  %54 = load i32, ptr %26, align 4, !tbaa !39
  %55 = sext i32 %54 to i64
  %56 = icmp slt i64 %indvars.iv.next, %55
  br i1 %56, label %40, label %._crit_edge, !llvm.loop !53

._crit_edge:                                      ; preds = %40, %.preheader
  %57 = phi i32 [ %37, %.preheader ], [ %54, %40 ]
  %indvars.iv.next55 = add nuw nsw i64 %indvars.iv54, 1
  %exitcond.not = icmp eq i64 %indvars.iv.next55, 4
  br i1 %exitcond.not, label %.loopexit, label %.preheader, !llvm.loop !54

58:                                               ; preds = %25, %21
  %59 = load ptr, ptr %8, align 8, !tbaa !12
  %60 = tail call i32 @av_get_packet(ptr noundef %59, ptr noundef %1, i32 noundef 1024) #5
  br label %.loopexit

.loopexit:                                        ; preds = %._crit_edge, %.preheader49, %58, %16
  %.044 = phi i32 [ %20, %16 ], [ %60, %58 ], [ 0, %.preheader49 ], [ 0, %._crit_edge ]
  %61 = load i32, ptr %14, align 4, !tbaa !38
  %62 = icmp eq i32 %61, 86096
  br i1 %62, label %63, label %75

63:                                               ; preds = %.loopexit
  %64 = getelementptr inbounds nuw i8, ptr %1, i64 32
  %65 = load i32, ptr %64, align 8, !tbaa !56
  %66 = icmp sgt i32 %65, 0
  br i1 %66, label %67, label %75

67:                                               ; preds = %63
  %68 = getelementptr inbounds nuw i8, ptr %1, i64 24
  %69 = load ptr, ptr %68, align 8, !tbaa !52
  %70 = load i8, ptr %69, align 1, !tbaa !11
  %71 = lshr i8 %70, 2
  %72 = zext nneg i8 %71 to i64
  %73 = shl nuw nsw i64 %72, 9
  %74 = getelementptr inbounds nuw i8, ptr %1, i64 64
  store i64 %73, ptr %74, align 8, !tbaa !57
  br label %75

75:                                               ; preds = %67, %63, %.loopexit
  %76 = getelementptr inbounds nuw i8, ptr %1, i64 72
  store i64 %13, ptr %76, align 8, !tbaa !58
  %77 = getelementptr inbounds nuw i8, ptr %1, i64 36
  store i32 0, ptr %77, align 4, !tbaa !59
  br label %.thread

.thread:                                          ; preds = %29, %2, %75
  %.043 = phi i32 [ %.044, %75 ], [ -541478725, %2 ], [ %32, %29 ]
  ret i32 %.043
}